target datalayout = "e-m:e-p270:32:32-p271:32:32-p272:64:64-i64:64-i128:128-f80:128-n8:16:32:64-S128"
target triple = "x86_64-pc-linux-gnu"

%union.pthread_mutex_t = type { %struct.__pthread_mutex_s }
%struct.__pthread_mutex_s = type { i32, i32, i32, i32, i32, i16, i16, %struct.__pthread_internal_list }
%struct.__pthread_internal_list = type { ptr, ptr }
%struct.slurm_acct_gather_energy_ops = type { ptr, ptr, ptr, ptr, ptr, ptr }

@g_context_lock = internal global %union.pthread_mutex_t zeroinitializer, align 8
@.str.1 = private unnamed_addr constant [29 x i8] c"%s: pthread_mutex_lock(): %m\00", align 1
@g_context_num = internal global i32 -1, align 4
@ops = internal global ptr null, align 8
@g_context = internal global ptr null, align 8
@.str.7 = private unnamed_addr constant [31 x i8] c"%s: pthread_mutex_unlock(): %m\00", align 1
@__func__.acct_gather_energy_g_conf_set = private unnamed_addr constant [30 x i8] c"acct_gather_energy_g_conf_set\00", align 1

; Function Attrs: nounwind uwtable
define dso_local i32 @acct_gather_energy_g_conf_set(ptr noundef %0) #0 {
  %2 = alloca i32, align 4
  %3 = alloca ptr, align 8
  %4 = alloca i32, align 4
  %5 = alloca i32, align 4
  %6 = alloca i32, align 4
  store ptr %0, ptr %3, align 8
  %7 = load i32, ptr @g_context_num, align 4
  %8 = icmp ne i32 %7, 0
  br i1 %8, label %10, label %9

9:                                                ; preds = %1
  store i32 0, ptr %2, align 4
  br label %55

10:                                               ; preds = %1
  br label %11

11:                                               ; preds = %10
  call void @llvm.lifetime.start.p0(i64 4, ptr %4) #7
  %12 = call i32 @pthread_mutex_lock(ptr noundef @g_context_lock) #7
  store i32 %12, ptr %4, align 4
  %13 = load i32, ptr %4, align 4
  %14 = icmp ne i32 %13, 0
  br i1 %14, label %15, label %18

15:                                               ; preds = %11
  %16 = load i32, ptr %4, align 4
  %17 = call ptr @__errno_location() #8
  store i32 %16, ptr %17, align 4
  call void (ptr, ...) @fatal_abort(ptr noundef @.str.1, ptr noundef @__func__.acct_gather_energy_g_conf_set) #9
  unreachable

18:                                               ; preds = %11
  call void @llvm.lifetime.end.p0(i64 4, ptr %4) #7
  br label %19

19:                                               ; preds = %18
  call void @llvm.lifetime.start.p0(i64 4, ptr %5) #7
  store i32 0, ptr %5, align 4
  br label %20

20:                                               ; preds = %42, %19
  %21 = load i32, ptr %5, align 4
  %22 = load i32, ptr @g_context_num, align 4
  %23 = icmp slt i32 %21, %22
  br i1 %23, label %25, label %24

24:                                               ; preds = %20
  call void @llvm.lifetime.end.p0(i64 4, ptr %5) #7
  br label %45

25:                                               ; preds = %20
  %26 = load ptr, ptr @g_context, align 8
  %27 = load i32, ptr %5, align 4
  %28 = sext i32 %27 to i64
  %29 = getelementptr inbounds ptr, ptr %26, i64 %28
  %30 = load ptr, ptr %29, align 8
  %31 = icmp ne ptr %30, null
  br i1 %31, label %33, label %32

32:                                               ; preds = %25
  br label %42

33:                                               ; preds = %25
  %34 = load ptr, ptr @ops, align 8
  %35 = load i32, ptr %5, align 4
  %36 = sext i32 %35 to i64
  %37 = getelementptr inbounds %struct.slurm_acct_gather_energy_ops, ptr %34, i64 %36
  %38 = getelementptr inbounds nuw %struct.slurm_acct_gather_energy_ops, ptr %37, i32 0, i32 4
  %39 = load ptr, ptr %38, align 8
  %40 = load i32, ptr %5, align 4
  %41 = load ptr, ptr %3, align 8
  call void %39(i32 noundef %40, ptr noundef %41)
  br label %42

42:                                               ; preds = %33, %32
  %43 = load i32, ptr %5, align 4
  %44 = add nsw i32 %43, 1
  store i32 %44, ptr %5, align 4
  br label %20, !llvm.loop !20

45:                                               ; preds = %24
  br label %46

46:                                               ; preds = %45
  call void @llvm.lifetime.start.p0(i64 4, ptr %6) #7
  %47 = call i32 @pthread_mutex_unlock(ptr noundef @g_context_lock) #7
  store i32 %47, ptr %6, align 4
  %48 = load i32, ptr %6, align 4
  %49 = icmp ne i32 %48, 0
  br i1 %49, label %50, label %53

50:                                               ; preds = %46
  %51 = load i32, ptr %6, align 4
  %52 = call ptr @__errno_location() #8
  store i32 %51, ptr %52, align 4
  call void (ptr, ...) @fatal_abort(ptr noundef @.str.7, ptr noundef @__func__.acct_gather_energy_g_conf_set) #9
  unreachable

53:                                               ; preds = %46
  call void @llvm.lifetime.end.p0(i64 4, ptr %6) #7
  br label %54

54:                                               ; preds = %53
  store i32 0, ptr %2, align 4
  br label %55

55:                                               ; preds = %54, %9
  %56 = load i32, ptr %2, align 4
  ret i32 %56
}