; Function Attrs: nounwind uwtable
define dso_local noundef i32 @acct_gather_energy_g_conf_set(ptr noundef %0) local_unnamed_addr #0 {
  %2 = load i32, ptr @g_context_num, align 4
  %.not = icmp eq i32 %2, 0
  br i1 %.not, label %26, label %3

3:                                                ; preds = %1
  %4 = tail call i32 @pthread_mutex_lock(ptr noundef nonnull @g_context_lock) #8
  %.not12 = icmp eq i32 %4, 0
  br i1 %.not12, label %.preheader, label %7

.preheader:                                       ; preds = %3
  %5 = load i32, ptr @g_context_num, align 4
  %6 = icmp sgt i32 %5, 0
  br i1 %6, label %.lr.ph.preheader, label %._crit_edge

.lr.ph.preheader:                                 ; preds = %.preheader
  %.pre17 = load ptr, ptr @g_context, align 8
  br label %.lr.ph

7:                                                ; preds = %3
  %8 = tail call ptr @__errno_location() #9
  store i32 %4, ptr %8, align 4
  tail call void (ptr, ...) @fatal_abort(ptr noundef nonnull @.str.1, ptr noundef nonnull @__func__.acct_gather_energy_g_conf_set) #10
  unreachable

._crit_edge:                                      ; preds = %19, %.preheader
  %9 = tail call i32 @pthread_mutex_unlock(ptr noundef nonnull @g_context_lock) #8
  %.not13 = icmp eq i32 %9, 0
  br i1 %.not13, label %26, label %24

.lr.ph:                                           ; preds = %.lr.ph.preheader, %19
  %10 = phi i32 [ %5, %.lr.ph.preheader ], [ %20, %19 ]
  %11 = phi ptr [ %.pre17, %.lr.ph.preheader ], [ %21, %19 ]
  %indvars.iv = phi i64 [ 0, %.lr.ph.preheader ], [ %indvars.iv.next, %19 ]
  %12 = getelementptr inbounds nuw ptr, ptr %11, i64 %indvars.iv
  %13 = load ptr, ptr %12, align 8
  %.not14 = icmp eq ptr %13, null
  br i1 %.not14, label %19, label %14

14:                                               ; preds = %.lr.ph
  %15 = load ptr, ptr @ops, align 8
  %16 = getelementptr inbounds nuw %struct.slurm_acct_gather_energy_ops, ptr %15, i64 %indvars.iv, i32 4
  %17 = load ptr, ptr %16, align 8
  %18 = trunc nuw nsw i64 %indvars.iv to i32
  tail call void %17(i32 noundef %18, ptr noundef %0) #8
  %.pre = load ptr, ptr @g_context, align 8
  %.pre18 = load i32, ptr @g_context_num, align 4
  br label %19

19:                                               ; preds = %.lr.ph, %14
  %20 = phi i32 [ %10, %.lr.ph ], [ %.pre18, %14 ]
  %21 = phi ptr [ %11, %.lr.ph ], [ %.pre, %14 ]
  %indvars.iv.next = add nuw nsw i64 %indvars.iv, 1
  %22 = sext i32 %20 to i64
  %23 = icmp slt i64 %indvars.iv.next, %22
  br i1 %23, label %.lr.ph, label %._crit_edge, !llvm.loop !18

24:                                               ; preds = %._crit_edge
  %25 = tail call ptr @__errno_location() #9
  store i32 %9, ptr %25, align 4
  tail call void (ptr, ...) @fatal_abort(ptr noundef nonnull @.str.7, ptr noundef nonnull @__func__.acct_gather_energy_g_conf_set) #10
  unreachable

26:                                               ; preds = %._crit_edge, %1
  ret i32 0
}